(lp0
VDoctors
p1
aVHealth & Medical
p2
aVNightlife
p3
aVActive Life
p4
aVMini Golf
p5
aVGolf
p6
aVShopping
p7
aVHome Services
p8
aVInternet Service Providers
p9
aVMobile Phones
p10
aVProfessional Services
p11
aVElectronics
p12
aVBars
p13
aVAmerican (New)
p14
aVLounges
p15
aVRestaurants
p16
aVAmerican (Traditional)
p17
aVAuto Repair
p18
aVAutomotive
p19
aVContractors
p20
aVBurgers
p21
aVBreakfast & Brunch
p22
aVFood
p23
aVGrocery
p24
aVCafes
p25
aVHotels & Travel
p26
aVEvent Planning & Services
p27
aVHotels
p28
aVPubs
p29
aVIrish
p30
aVLocal Services
p31
aVSewing & Alterations
p32
aVDentists
p33
aVGeneral Dentistry
p34
aVChinese
p35
aVGyms
p36
aVTrainers
p37
aVFitness & Instruction
p38
aVItalian
p39
aVPeriodontists
p40
aVOrthodontists
p41
aVFast Food
p42
aVCoffee & Tea
p43
aVArts & Crafts
p44
aVKnitting Supplies
p45
aVHobby Shops
p46
aVDepartment Stores
p47
aVFashion
p48
aVBody Shops
p49
aVBuilding Supplies
p50
aVHome & Garden
p51
aVHardware Stores
p52
aVNurseries & Gardening
p53
aVArts & Entertainment
p54
aVArcades
p55
aVBreweries
p56
aVComedy Clubs
p57
aVVideos & Video Game Rental
p58
aVBooks, Mags, Music & Video
p59
aVBookstores
p60
aVSwimming Pools
p61
aVMattresses
p62
aVAirport Shuttles
p63
aVLimos
p64
aVTransportation
p65
aVFood Delivery Services
p66
aVPizza
p67
aVGluten-Free
p68
aVLingerie
p69
aVAsian Fusion
p70
aVShoe Stores
p71
aVSoup
p72
aVSandwiches
p73
aVSalad
p74
aVVeterinarians
p75
aVPets
p76
aVMen's Clothing
p77
aVFormal Wear
p78
aVDiscount Store
p79
aVSeafood
p80
aVWomen's Clothing
p81
aVChildren's Clothing
p82
aVSporting Goods
p83
aVOutdoor Gear
p84
aVSports Wear
p85
aVBikes
p86
aVThrift Stores
p87
aVBakeries
p88
aVDesserts
p89
aVCaterers
p90
aVTattoo
p91
aVPiercing
p92
aVBeauty & Spas
p93
aVSports Bars
p94
aVFlowers & Gifts
p95
aVFlorists
p96
aVNail Salons
p97
aVHair Salons
p98
aVIce Cream & Frozen Yogurt
p99
aVMovers
p100
aVAntiques
p101
aVHome Decor
p102
aVBeer, Wine & Spirits
p103
aVPet Services
p104
aVPet Groomers
p105
aVPet Boarding/Pet Sitting
p106
aVTapas/Small Plates
p107
aVAuto Parts & Supplies
p108
aVDrugstores
p109
aVMen's Hair Salons
p110
aVAnimal Shelters
p111
aVTires
p112
aVOil Change Stations
p113
aVReal Estate Services
p114
aVReal Estate
p115
aVBarbeque
p116
aVFurniture Stores
p117
aVPet Stores
p118
aVChiropractors
p119
aVPerforming Arts
p120
aVKeys & Locksmiths
p121
aVSecurity Systems
p122
aVSpecialty Schools
p123
aVEducation
p124
aVCooking Schools
p125
aVTravel Services
p126
aVLibraries
p127
aVPublic Services & Government
p128
aVMusic Venues
p129
aVAppliances
p130
aVArt Schools
p131
aVDry Cleaning & Laundry
p132
aVSpecialty Food
p133
aVTennis
p134
aVWine Bars
p135
aVMediterranean
p136
aVVegetarian
p137
aVHealth Markets
p138
aVClimbing
p139
aVPortuguese
p140
aVMuseums
p141
aVLandmarks & Historical Buildings
p142
aVSkin Care
p143
aVBanks & Credit Unions
p144
aVFinancial Services
p145
aVMortgage Brokers
p146
aVDiners
p147
aVMotorcycle Dealers
p148
aVPhotography Stores & Services
p149
aVGerman
p150
aVDelis
p151
aVBed & Breakfast
p152
aVDive Bars
p153
aVBistros
p154
aVCinema
p155
aVChicken Wings
p156
aVBarbers
p157
aVLeisure Centers
p158
aVHot Dogs
p159
aVKids Activities
p160
aVProfessional Sports Teams
p161
aVStadiums & Arenas
p162
aVChurches
p163
aVReligious Organizations
p164
aVPrint Media
p165
aVMass Media
p166
aVMeat Shops
p167
aVParty & Event Planning
p168
aVPolish
p169
aVGreek
p170
aVMusic & DVDs
p171
aVFireplace Services
p172
aVReflexology
p173
aVReiki
p174
aVDJs
p175
aVSushi Bars
p176
aVJapanese
p177
aVPool Halls
p178
aVLighting Fixtures & Equipment
p179
aVHeating & Air Conditioning/HVAC
p180
aVIndian
p181
aVBowling
p182
aVPrinting Services
p183
aVOffice Equipment
p184
aVBridal
p185
aVUsed, Vintage & Consignment
p186
aVMexican
p187
aVTex-Mex
p188
aVShoe Repair
p189
aVBeaches
p190
aVGas & Service Stations
p191
aVKitchen & Bath
p192
aVBagels
p193
aVTours
p194
aVDonuts
p195
aVShopping Centers
p196
aVFlooring
p197
aVVenues & Event Spaces
p198
aVComfort Food
p199
aVTapas Bars
p200
aVCocktail Bars
p201
aVEthnic Food
p202
aVPublic Transportation
p203
aVCar Rental
p204
aVWholesale Stores
p205
aVCosmetics & Beauty Supply
p206
aVHair Removal
p207
aVHair Stylists
p208
aVArt Galleries
p209
aVSteakhouses
p210
aVOptometrists
p211
aVOphthalmologists
p212
aVEyewear & Opticians
p213
aVGay Bars
p214
aVCommunity Service/Non-Profit
p215
aVLuggage
p216
aVCandy Stores
p217
aVKorean
p218
aVMidwives
p219
aVChocolatiers & Shops
p220
aVMassage
p221
aVOpera & Ballet
p222
aVCar Wash
p223
aVSouvenir Shops
p224
aVCards & Stationery
p225
aVTrain Stations
p226
aVFurniture Reupholstery
p227
aVFabric Stores
p228
aVCheese Shops
p229
aVKaraoke
p230
aVVietnamese
p231
aVThai
p232
aVVinyl Records
p233
aVNewspapers & Magazines
p234
aVTanning
p235
aVGift Shops
p236
aVCar Dealers
p237
aVMiddle Eastern
p238
aVMusical Instruments & Teachers
p239
aVDay Spas
p240
aVHair Extensions
p241
aVTobacco Shops
p242
aVAcupuncture
p243
aVTraditional Chinese Medicine
p244
aVHospitals
p245
aVTea Rooms
p246
aVToy Stores
p247
aVAccessories
p248
aVConvenience Stores
p249
aVJewelry
p250
aVWatches
p251
aVPeruvian
p252
aVLatin American
p253
aVShipping Centers
p254
aVPost Offices
p255
aVApartments
p256
aVCreperies
p257
aVFrench
p258
aVLeather Goods
p259
aVTaiwanese
p260
aVDo-It-Yourself Food
p261
aVColleges & Universities
p262
aVGun/Rifle Ranges
p263
aVGuns & Ammo
p264
aVHorseback Riding
p265
aVParks
p266
aVLocal Flavor
p267
aVAmateur Sports Teams
p268
aVPet Training
p269
aVBaby Gear & Furniture
p270
aVAppliances & Repair
p271
aVComputers
p272
aVIT Services & Computer Repair
p273
aVBuffets
p274
aVWindows Installation
p275
aVSkating Rinks
p276
aVSouthern
p277
aVCajun/Creole
p278
aVResorts
p279
aVAmusement Parks
p280
aVFuneral Services & Cemeteries
p281
aVRecreation Centers
p282
aVSignmaking
p283
aVTelevision Service Providers
p284
aVSoul Food
p285
aVAdult Entertainment
p286
aVPhotographers
p287
aVSummer Camps
p288
aVJuice Bars & Smoothies
p289
aVDance Clubs
p290
aVParking
p291
aVFraming
p292
aVElectricians
p293
aVWeight Loss Centers
p294
aVVocational & Technical School
p295
aVAdult Education
p296
aVCaribbean
p297
aVCosmetic Dentists
p298
aVBotanical Gardens
p299
aVLandscaping
p300
aVFondue
p301
aVUniforms
p302
aVNotaries
p303
aVPakistani
p304
aVMalaysian
p305
aVYoga
p306
aVTax Services
p307
aVFinancial Advising
p308
aVComic Books
p309
aVEthiopian
p310
aVJazz & Blues
p311
aVObstetricians & Gynecologists
p312
aVDance Schools
p313
aVGo Karts
p314
aVAirports
p315
aVPersonal Assistants
p316
aVCountry Dance Halls
p317
aVEar Nose & Throat
p318
aVCosmetic Surgeons
p319
aVPodiatrists
p320
aVFamily Practice
p321
aVUrgent Care
p322
aVOral Surgeons
p323
aVProperty Management
p324
aVElementary Schools
p325
aVPreschools
p326
aVDivorce & Family Law
p327
aVLawyers
p328
aVPersian/Iranian
p329
aVHookah Bars
p330
aVBuddhist Temples
p331
aVTruck Rental
p332
aVSurfing
p333
aVSynagogues
p334
aVLaser Eye Surgery/Lasik
p335
aVParty Supplies
p336
aVCostumes
p337
aVEmployment Agencies
p338
aVMedical Centers
p339
aVFirst Aid Classes
p340
aVRadio Stations
p341
aVSwimwear
p342
aVCar Stereo Installation
p343
aVSports Clubs
p344
aVMartial Arts
p345
aVSwimming Lessons/Schools
p346
aVHiking
p347
aVLaser Hair Removal
p348
aVDermatologists
p349
aVRV Parks
p350
aVCampgrounds
p351
aVTelevision Stations
p352
aVPilates
p353
aVArt Supplies
p354
aVLandscape Architects
p355
aVRace Tracks
p356
aVAdult
p357
aVTaxis
p358
aVWedding Planning
p359
aVBike Rentals
p360
aVLebanese
p361
aVInternet Cafes
p362
aVVideo Game Stores
p363
aVMedical Supplies
p364
aVSelf Storage
p365
aVPet Adoption
p366
aVAccountants
p367
aVPayroll Services
p368
aVMotorcycle Repair
p369
aVTelecommunications
p370
aVBoating
p371
aVPlumbing
p372
aVWindshield Installation & Repair
p373
aVAuto Glass Services
p374
aVFertility
p375
aVUniversity Housing
p376
aVSocial Clubs
p377
aVTowing
p378
aVInterior Design
p379
aVSpanish
p380
aVTree Services
p381
aVHome Cleaning
p382
aVFruits & Veggies
p383
aVMiddle Schools & High Schools
p384
aVBeer Bar
p385
aVCheesesteaks
p386
aVCardiologists
p387
aVScreen Printing/T-Shirt Printing
p388
aVMedical Spas
p389
aVFish & Chips
p390
aVSalvadoran
p391
aVGardeners
p392
aVOrthopedists
p393
aVCarpet Cleaning
p394
aVCarpeting
p395
aVScreen Printing
p396
aVGraphic Design
p397
aVElectronics Repair
p398
aVZoos
p399
aVRegistration Services
p400
aVChild Care & Day Care
p401
aVOutlet Stores
p402
aVLife Coach
p403
aVCareer Counseling
p404
aVPawn Shops
p405
aVBritish
p406
aVMakeup Artists
p407
aVTattoo Removal
p408
aVSolar Installation
p409
aVEstate Planning Law
p410
aVCounseling & Mental Health
p411
aVGymnastics
p412
aVParty Equipment Rentals
p413
aVMaternity Wear
p414
aVWigs
p415
aVBike Repair/Maintenance
p416
aVKosher
p417
aVCarpet Installation
p418
aVSession Photography
p419
aVCupcakes
p420
aVSpeech Therapists
p421
aVOccupational Therapy
p422
aVPhysical Therapy
p423
aVDog Walkers
p424
aVSports Medicine
p425
aVWaxing
p426
aVEyelash Service
p427
aVHot Tub & Pool
p428
aVFestivals
p429
aVAuto Detailing
p430
aVVegan
p431
aVDance Studios
p432
aVCouriers & Delivery Services
p433
aVHawaiian
p434
aVInternal Medicine
p435
aVBattery Stores
p436
aVJewelry Repair
p437
aVCuban
p438
aVAllergists
p439
aVGastropubs
p440
aVChimney Sweeps
p441
aVWatch Repair
p442
aVWheel & Rim Repair
p443
aVSpray Tanning
p444
aVPool Cleaners
p445
aVShades & Blinds
p446
aVTai Chi
p447
aVPediatricians
p448
aVReligious Schools
p449
aVGarage Door Services
p450
aVPest Control
p451
aVRetirement Homes
p452
aVFood Banks
p453
aVMagicians
p454
aVMassage Therapy
p455
aVVape Shops
p456
aVRussian
p457
aVDiagnostic Services
p458
aVDiagnostic Imaging
p459
aVRadiologists
p460
aVLaboratory Testing
p461
aVCommercial Real Estate
p462
aVSki Resorts
p463
aVHome Theatre Installation
p464
aVGolf Equipment
p465
aVPaintball
p466
aVBespoke Clothing
p467
aVPretzels
p468
aVHome Health Care
p469
aVPediatric Dentists
p470
aVFarmers Market
p471
aVAirlines
p472
aVFirewood
p473
aVPressure Washers
p474
aVPool & Hot Tub Service
p475
aVInsulation Installation
p476
aVHorse Racing
p477
aVBusiness Law
p478
aVBankruptcy Law
p479
aVRoofing
p480
aVWater Delivery
p481
aVUtilities
p482
aVFences & Gates
p483
aVPlaygrounds
p484
aVShaved Ice
p485
aVPersonal Injury Law
p486
aVTicket Sales
p487
aVInsurance
p488
aVDiving
p489
aVUrologists
p490
aVNeurologist
p491
aVWindow Washing
p492
aVPsychiatrists
p493
aVRheumatologists
p494
aVScuba Diving
p495
aVEndodontists
p496
aVArabian
p497
aVTest Preparation
p498
aVAuto Customization
p499
aVLaser Tag
p500
aVSeafood Markets
p501
aVFlea Markets
p502
aVRV Rental
p503
aVDepartments of Motor Vehicles
p504
aVRecycling Center
p505
aVHome Window Tinting
p506
aVRV Dealers
p507
aVGelato
p508
aVHalal
p509
aVReal Estate Agents
p510
aVDim Sum
p511
aVPainters
p512
aVGastroenterologist
p513
aVDriving Schools
p514
aVDamage Restoration
p515
aVHats
p516
aVArchery
p517
aVHome Inspectors
p518
aVMountain Biking
p519
aVPropane
p520
aVHandyman
p521
aVAdvertising
p522
aVRafting/Kayaking
p523
aVVacation Rentals
p524
aVShared Office Spaces
p525
aVOrthotics
p526
aVNutritionists
p527
aVAnesthesiologists
p528
aVCasinos
p529
aVEmbroidery & Crochet
p530
aVDUI Law
p531
aVWeb Design
p532
aVTutoring Centers
p533
aVFlight Instruction
p534
aVHot Air Balloons
p535
aVFlowers
p536
aVOfficiants
p537
aVCabinetry
p538
aVCosmetology Schools
p539
aVMongolian
p540
aVMassage Schools
p541
aVPermanent Makeup
p542
aVMarketing
p543
aVCriminal Defense Law
p544
aVEndocrinologists
p545
aVAquariums
p546
aVPsychics & Astrologers
p547
aVRehabilitation Center
p548
aVJunk Removal & Hauling
p549
aVBoot Camps
p550
aVPharmacy
p551
aVOncologist
p552
aVSmog Check Stations
p553
aVOffice Cleaning
p554
aVMotorcycle Rental
p555
aVFilipino
p556
aVGlass & Mirrors
p557
aVMetal Fabricators
p558
aVBartending Schools
p559
aVHostels
p560
aVButcher
p561
aVReal Estate Law
p562
aVRV Repair
p563
aVHorse Boarding
p564
aVSurgeons
p565
aVArt Classes
p566
aVHindu Temples
p567
aVAudiologist
p568
aVVideographers
p569
aVVideo/Film Production
p570
aVArgentine
p571
aVNanny Services
p572
aVTrophy Shops
p573
aVCantonese
p574
aVStreet Vendors
p575
aVFood Trucks
p576
aVPhoto Booth Rentals
p577
aVBelgian
p578
aVCambodian
p579
aVHungarian
p580
aVSzechuan
p581
aVWineries
p582
aVDelicatessen
p583
aVPasta Shops
p584
aVAquarium Services
p585
aVPlus Size Fashion
p586
aVRugs
p587
aVBasque
p588
aVFireworks
p589
aVPersonal Shopping
p590
aVHimalayan/Nepalese
p591
aVMoroccan
p592
aVFalafel
p593
aVAfrican
p594
aVEducational Services
p595
aVIndonesian
p596
aVTurkish
p597
aVAfghan
p598
aVEmployment Law
p599
aVCPR Classes
p600
aVHerbs & Spices
p601
aVBrewing Supplies
p602
aVDoor Sales/Installation
p603
aVFire Protection Services
p604
aVCultural Center
p605
aVIrrigation
p606
aVBoxing
p607
aVNaturopathic/Holistic
p608
aVSoccer
p609
aVBoat Repair
p610
aVFishing
p611
aVHome Organization
p612
aVFood Stands
p613
aVCSA
p614
aVModern European
p615
aVMusical Instrument Services
p616
aVPiano Services
p617
aVGeneral Litigation
p618
aVLakes
p619
aVBoat Charters
p620
aVAuction Houses
p621
aVTalent Agencies
p622
aVHearing Aid Providers
p623
aVHigh Fidelity Audio Equipment
p624
aVBoat Dealers
p625
aVMasonry/Concrete
p626
aVDrywall Installation & Repair
p627
aVGolf Equipment Shops
p628
aVBail Bondsmen
p629
aVPowder Coating
p630
aVIrish Pub
p631
aVCheck Cashing/Pay-day Loans
p632
aVMailbox Centers
p633
aVInvesting
p634
aVTrains
p635
aVSkydiving
p636
aVBlow Dry/Out Services
p637
aVCurrency Exchange
p638
aVBrazilian
p639
aVGuest Houses
p640
aVPersonal Chefs
p641
aVLaotian
p642
aVDog Parks
p643
aVPiano Bars
p644
aVCoffeeshops
p645
aVPolice Departments
p646
aVBuses
p647
aVHot Pot
p648
aVSkate Parks
p649
aVBurmese
p650
aVDisc Golf
p651
aVLive/Raw Food
p652
aVLegal Services
p653
aVRefinishing Services
p654
aVPrivate Tutors
p655
aVProsthetics
p656
aVHealth Retreats
p657
aVLactation Services
p658
aVTanning Beds
p659
aVRecording & Rehearsal Studios
p660
aVImmigration Law
p661
aVSeptic Services
p662
aVAuto Loan Providers
p663
aVCourthouses
p664
aVBrasseries
p665
aVClowns
p666
aVSpecial Education
p667
aVShredding Services
p668
aVBubble Tea
p669
aVBartenders
p670
aVMusicians
p671
aVSingaporean
p672
aVCycling Classes
p673
aVChampagne Bars
p674
aVCoffee & Tea Supplies
p675
aVColombian
p676
aVCar Share Services
p677
aVCafeteria
p678
aVScandinavian
p679
aVCanadian (New)
p680
aVPoutineries
p681
aVOrganic Stores
p682
aVUsed Bookstore
p683
aVHaitian
p684
aVLanguage Schools
p685
aVAustrian
p686
aVHypnosis/Hypnotherapy
p687
aVRock Climbing
p688
aVFood Court
p689
aVData Recovery
p690
aVDominican
p691
aVEvent Photography
p692
aVMotorcycle Gear
p693
aVScottish
p694
aVPatisserie/Cake Shop
p695
aVPub Food
p696
aVFace Painting
p697
aVRamen
p698
aVBarre Classes
p699
aVStreet Art
p700
aVPrivate Investigation
p701
aVDoulas
p702
aVCooking Classes
p703
aVGold Buyers
p704
aVMosques
p705
aVCannabis Clinics
p706
aVArchitects
p707
aVDay Camps
p708
aVMobile Phone Repair
p709
aVSurf Shop
p710
aVShutters
p711
aVHospice
p712
aVSecurity Services
p713
aVParty Bus Rentals
p714
aVBangladeshi
p715
aVAustralian
p716
aVRolfing
p717
aVUkrainian
p718
aVBus Tours
p719
aVBeer Garden
p720
aVBaden
p721
aVBeer Gardens
p722
aVInternational
p723
aVBeverage Store
p724
aVEthnic Grocery
p725
aVKebab
p726
aVSerbo Croatian
p727
aVMatchmakers
p728
aVSaunas
p729
aVPublic Plazas
p730
aVCastles
p731
aVPaddleboarding
p732
aVVacation Rental Agents
p733
aVFurniture Repair
p734
aVOriental
p735
aVShanghainese
p736
aVDistilleries
p737
aVVenezuelan
p738
aVPsychologists
p739
aVTrampoline Parks
p740
aVBavarian
p741
aVAirport Lounges
p742
aVBatting Cages
p743
aVMedical Transportation
p744
aVFood Tours
p745
aVIberian
p746
aVTrinidadian
p747
aVFirearm Training
p748
aVBike Sharing
p749
aVOsteopathic Physicians
p750
aVYelp Events
p751
aVCurry Sausage
p752
aVChallenge Courses
p753
aVHang Gliding
p754
aVEgyptian
p755
aVCollege Counseling
p756
aVPulmonologist
p757
aVSugaring
p758
aVHome Staging
p759
aVDonairs
p760
aVGeneral Festivals
p761
aVWine Tours
p762
aVCzech
p763
aVEastern European
p764
aVMeditation Centers
p765
aVWalking Tours
p766
aVBasketball Courts
p767
aVEastern German
p768
aVChristmas Markets
p769
aVWok
p770
aVSwiss Food
p771
aVValet Services
p772
aVWalk-in Clinics
p773
aVPole Dancing Classes
p774
aVUzbek
p775
aVLice Services
p776
aVCustomized Merchandise
p777
aVGutter Services
p778
aVPita
p779
aVTeppanyaki
p780
aVPop-up Shops
p781
aVCabaret
p782
aVIzakaya
p783
a.