(lp0
VAZ
p1
aVPA
p2
aVNC
p3
aVSC
p4
aVWI
p5
aVIL
p6
aVNV
p7
aVWA
p8
aVCA
p9
aVQC
p10
aVON
p11
aVEDH
p12
aVMLN
p13
aVELN
p14
aVHAM
p15
aVSCB
p16
aVFIF
p17
aVXGL
p18
aVNTH
p19
aVBW
p20
aVRP
p21
aVKHL
p22
aVMN
p23
aVMA
p24
aVNW
p25
aVOR
p26
a.